; Function Attrs: nofree nounwind uwtable
define void @Kit_PrintHexadecimal(ptr noundef captures(none) %0, ptr noundef readonly captures(none) %1, i32 noundef %2) local_unnamed_addr #5 {
  %4 = shl nuw i32 1, %2
  %5 = icmp sgt i32 %4, 3
  br i1 %5, label %.lr.ph.preheader, label %._crit_edge

.lr.ph.preheader:                                 ; preds = %3
  %6 = lshr i32 %4, 2
  br label %.lr.ph

.lr.ph:                                           ; preds = %.lr.ph.preheader, %20
  %.013.in = phi i32 [ %.013, %20 ], [ %6, %.lr.ph.preheader ]
  %.013 = add nsw i32 %.013.in, -1
  %7 = lshr i32 %.013, 3
  %8 = zext nneg i32 %7 to i64
  %9 = getelementptr inbounds nuw i32, ptr %1, i64 %8
  %10 = load i32, ptr %9, align 4, !tbaa !3
  %11 = shl i32 %.013, 2
  %12 = and i32 %11, 28
  %13 = lshr i32 %10, %12
  %14 = and i32 %13, 15
  %15 = icmp samesign ult i32 %14, 10
  br i1 %15, label %16, label %18

16:                                               ; preds = %.lr.ph
  %17 = tail call i32 (ptr, ptr, ...) @fprintf(ptr noundef %0, ptr noundef nonnull @.str, i32 noundef %14) #13
  br label %20

18:                                               ; preds = %.lr.ph
  %19 = add nuw nsw i32 %14, 87
  %fputc = tail call i32 @fputc(i32 %19, ptr %0)
  br label %20

20:                                               ; preds = %16, %18
  %21 = icmp samesign ugt i32 %.013.in, 1
  br i1 %21, label %.lr.ph, label %._crit_edge, !llvm.loop !170

._crit_edge:                                      ; preds = %20, %3
  ret void
}